(dp1
S'a'
S'b'
sS'pppppp'
p2
S'spotify:album:6I32F29dUZtcfcUomCMoLr'
p3
sS'sigh-no-more'
p4
S'spotify:album:7GiLJfRPHARQrRJf01P2Tt'
p5
sS'frozen'
p6
S'spotify:track:0qcr5FMsEO85NAQjrlDRKo'
p7
sS'lotr'
p8
S'spotify:album:04rz93AqGy9JduzV3K81Dh'
p9
sS'RAM'
p10
S'spotify:album:4m2880jivSbbyEGAKfITCa'
p11
sS'reptilia'
p12
S'spotify:track:57Xjny5yNzAcsxnusKmAfA'
p13
sS'strokes'
p14
S'spotify:artist:0epOFNiUfyON9EYx7Tpr6V'
p15
sS'trololo'
p16
S'spotify:track:17DteqUBu6Alp3jGWkbadK'
p17
sS'single-ladies'
p18
S'spotify:track:5R9a4t5t5O0IsznsrKPVro'
p19
sS'minecraft'
p20
S'spotify:album:3Gt7rOjcZQoHCfnKl5AkK7'
p21
sS'sun-parade'
p22
S'spotify:artist:6BfugjHhizDOYrZvWs1tS7'
p23
s.